target datalayout = "e-m:e-p270:32:32-p271:32:32-p272:64:64-i64:64-i128:128-f80:128-n8:16:32:64-S128"
target triple = "x86_64-pc-linux-gnu"

%struct._object = type { %union.anon.41, ptr }
%union.anon.41 = type { i64 }
%struct.PyVarObject = type { %struct._object, i64 }
%struct.PyASCIIObject = type { %struct._object, i64, i64, %struct.anon.46 }
%struct.anon.46 = type { i16, i16 }
%struct._typeobject = type { %struct.PyVarObject, ptr, i64, i64, ptr, i64, ptr, ptr, ptr, ptr, ptr, ptr, ptr, ptr, ptr, ptr, ptr, ptr, ptr, i64, ptr, ptr, ptr, ptr, i64, ptr, ptr, ptr, ptr, ptr, ptr, ptr, ptr, ptr, i64, ptr, ptr, ptr, ptr, ptr, ptr, ptr, ptr, ptr, ptr, ptr, i32, ptr, ptr, i8, i16 }

@PyExc_ValueError = external global ptr, align 8
@PyExc_TypeError = external global ptr, align 8
@.str.115 = private unnamed_addr constant [19 x i8] c"expect str, not %T\00", align 1
@.str.116 = private unnamed_addr constant [23 x i8] c"invalid start argument\00", align 1
@.str.117 = private unnamed_addr constant [21 x i8] c"invalid end argument\00", align 1

; Function Attrs: inlinehint nounwind uwtable
define internal i64 @PyUnicode_GET_LENGTH(ptr noundef %0) #2 {
  %2 = alloca ptr, align 8
  store ptr %0, ptr %2, align 8, !tbaa !4
  %3 = load ptr, ptr %2, align 8, !tbaa !4
  %4 = getelementptr inbounds nuw %struct.PyASCIIObject, ptr %3, i32 0, i32 1
  %5 = load i64, ptr %4, align 8, !tbaa !194
  ret i64 %5
}

; Function Attrs: inlinehint nounwind uwtable
define internal i32 @PyType_HasFeature(ptr noundef %0, i64 noundef %1) #2 {
  %3 = alloca ptr, align 8
  %4 = alloca i64, align 8
  %5 = alloca i64, align 8
  store ptr %0, ptr %3, align 8, !tbaa !196
  store i64 %1, ptr %4, align 8, !tbaa !185
  call void @llvm.lifetime.start.p0(i64 8, ptr %5) #12
  %6 = load ptr, ptr %3, align 8, !tbaa !196
  %7 = getelementptr inbounds nuw %struct._typeobject, ptr %6, i32 0, i32 19
  %8 = load i64, ptr %7, align 8, !tbaa !197
  store i64 %8, ptr %5, align 8, !tbaa !185
  %9 = load i64, ptr %5, align 8, !tbaa !185
  %10 = load i64, ptr %4, align 8, !tbaa !185
  %11 = and i64 %9, %10
  %12 = icmp ne i64 %11, 0
  %13 = zext i1 %12 to i32
  call void @llvm.lifetime.end.p0(i64 8, ptr %5) #12
  ret i32 %13
}

; Function Attrs: inlinehint nounwind uwtable
define internal ptr @_Py_TYPE(ptr noundef %0) #2 {
  %2 = alloca ptr, align 8
  store ptr %0, ptr %2, align 8, !tbaa !4
  %3 = load ptr, ptr %2, align 8, !tbaa !4
  %4 = getelementptr inbounds nuw %struct._object, ptr %3, i32 0, i32 1
  %5 = load ptr, ptr %4, align 8, !tbaa !202
  ret ptr %5
}

; Function Attrs: nounwind uwtable
define dso_local i32 @PyUnicodeWriter_WriteSubstring(ptr noundef %0, ptr noundef %1, i64 noundef %2, i64 noundef %3) #0 {
  %5 = alloca i32, align 4
  %6 = alloca ptr, align 8
  %7 = alloca ptr, align 8
  %8 = alloca i64, align 8
  %9 = alloca i64, align 8
  store ptr %0, ptr %6, align 8, !tbaa !230
  store ptr %1, ptr %7, align 8, !tbaa !4
  store i64 %2, ptr %8, align 8, !tbaa !185
  store i64 %3, ptr %9, align 8, !tbaa !185
  %10 = load ptr, ptr %7, align 8, !tbaa !4
  %11 = call ptr @_Py_TYPE(ptr noundef %10)
  %12 = call i32 @PyType_HasFeature(ptr noundef %11, i64 noundef 268435456)
  %13 = icmp ne i32 %12, 0
  br i1 %13, label %18, label %14

14:                                               ; preds = %4
  %15 = load ptr, ptr @PyExc_TypeError, align 8, !tbaa !4
  %16 = load ptr, ptr %7, align 8, !tbaa !4
  %17 = call ptr (ptr, ptr, ...) @PyErr_Format(ptr noundef %15, ptr noundef @.str.115, ptr noundef %16)
  store i32 -1, ptr %5, align 4
  br label %42

18:                                               ; preds = %4
  %19 = load i64, ptr %8, align 8, !tbaa !185
  %20 = icmp slt i64 %19, 0
  br i1 %20, label %25, label %21

21:                                               ; preds = %18
  %22 = load i64, ptr %8, align 8, !tbaa !185
  %23 = load i64, ptr %9, align 8, !tbaa !185
  %24 = icmp sgt i64 %22, %23
  br i1 %24, label %25, label %28

25:                                               ; preds = %21, %18
  %26 = load ptr, ptr @PyExc_ValueError, align 8, !tbaa !4
  %27 = call ptr (ptr, ptr, ...) @PyErr_Format(ptr noundef %26, ptr noundef @.str.116)
  store i32 -1, ptr %5, align 4
  br label %42

28:                                               ; preds = %21
  %29 = load i64, ptr %9, align 8, !tbaa !185
  %30 = load ptr, ptr %7, align 8, !tbaa !4
  %31 = call i64 @PyUnicode_GET_LENGTH(ptr noundef %30)
  %32 = icmp sgt i64 %29, %31
  br i1 %32, label %33, label %36

33:                                               ; preds = %28
  %34 = load ptr, ptr @PyExc_ValueError, align 8, !tbaa !4
  %35 = call ptr (ptr, ptr, ...) @PyErr_Format(ptr noundef %34, ptr noundef @.str.117)
  store i32 -1, ptr %5, align 4
  br label %42

36:                                               ; preds = %28
  %37 = load ptr, ptr %6, align 8, !tbaa !230
  %38 = load ptr, ptr %7, align 8, !tbaa !4
  %39 = load i64, ptr %8, align 8, !tbaa !185
  %40 = load i64, ptr %9, align 8, !tbaa !185
  %41 = call i32 @_PyUnicodeWriter_WriteSubstring(ptr noundef %37, ptr noundef %38, i64 noundef %39, i64 noundef %40)
  store i32 %41, ptr %5, align 4
  br label %42

42:                                               ; preds = %36, %33, %25, %14
  %43 = load i32, ptr %5, align 4
  ret i32 %43
}