; Function Attrs: nounwind uwtable
define dso_local range(i32 -1, 1) i32 @PyUnicodeWriter_WriteSubstring(ptr noundef captures(none) %0, ptr noundef %1, i64 noundef %2, i64 noundef %3) local_unnamed_addr #0 {
  %5 = getelementptr i8, ptr %1, i64 8
  %.val = load ptr, ptr %5, align 8, !tbaa !187
  %6 = getelementptr i8, ptr %.val, i64 168
  %.val13 = load i64, ptr %6, align 8, !tbaa !188
  %7 = and i64 %.val13, 268435456
  %.not = icmp eq i64 %7, 0
  br i1 %.not, label %8, label %11

8:                                                ; preds = %4
  %9 = load ptr, ptr @PyExc_TypeError, align 8, !tbaa !183
  %10 = tail call ptr (ptr, ptr, ...) @PyErr_Format(ptr noundef %9, ptr noundef nonnull @.str.115, ptr noundef nonnull %1) #41
  br label %25

11:                                               ; preds = %4
  %12 = icmp slt i64 %2, 0
  %13 = icmp sgt i64 %2, %3
  %or.cond = or i1 %12, %13
  br i1 %or.cond, label %14, label %17

14:                                               ; preds = %11
  %15 = load ptr, ptr @PyExc_ValueError, align 8, !tbaa !183
  %16 = tail call ptr (ptr, ptr, ...) @PyErr_Format(ptr noundef %15, ptr noundef nonnull @.str.116) #41
  br label %25

17:                                               ; preds = %11
  %18 = getelementptr i8, ptr %1, i64 16
  %.val14 = load i64, ptr %18, align 8, !tbaa !197
  %19 = icmp sgt i64 %3, %.val14
  br i1 %19, label %20, label %23

20:                                               ; preds = %17
  %21 = load ptr, ptr @PyExc_ValueError, align 8, !tbaa !183
  %22 = tail call ptr (ptr, ptr, ...) @PyErr_Format(ptr noundef %21, ptr noundef nonnull @.str.117) #41
  br label %25

23:                                               ; preds = %17
  %24 = tail call i32 @_PyUnicodeWriter_WriteSubstring(ptr noundef %0, ptr noundef nonnull %1, i64 noundef %2, i64 noundef %3)
  br label %25

25:                                               ; preds = %23, %20, %14, %8
  %.0 = phi i32 [ -1, %14 ], [ -1, %20 ], [ %24, %23 ], [ -1, %8 ]
  ret i32 %.0
}